target datalayout = "e-m:e-p270:32:32-p271:32:32-p272:64:64-i64:64-i128:128-f80:128-n8:16:32:64-S128"
target triple = "x86_64-pc-linux-gnu"

%struct.ForEachState = type { ptr, i32 }
%struct.List = type { i32, i32, i32, ptr, [0 x %union.ListCell] }
%union.ListCell = type { ptr }
%struct.LockViewRecurse_context = type { i32, i8, i32, i32, ptr }
%struct.Node = type { i32 }
%struct.Query = type { i32, i32, i32, i64, i8, ptr, i32, i8, i8, i8, i8, i8, i8, i8, i8, i8, i8, i8, ptr, ptr, ptr, ptr, ptr, i32, ptr, ptr, i32, ptr, ptr, ptr, ptr, ptr, i8, ptr, ptr, ptr, ptr, ptr, ptr, ptr, i32, ptr, ptr, ptr, ptr, i32, i32 }
%struct.RangeTblEntry = type { i32, ptr, ptr, i32, i32, i8, i8, i32, i32, ptr, ptr, i8, i32, i32, ptr, ptr, ptr, ptr, ptr, i8, ptr, ptr, ptr, i32, i8, ptr, ptr, ptr, ptr, double, ptr, i8, i8, ptr }

@.str.1 = private unnamed_addr constant [11 x i8] c"lockcmds.c\00", align 1
@.str.2 = private unnamed_addr constant [39 x i8] c"could not obtain lock on relation \22%s\22\00", align 1
@__func__.LockViewRecurse_walker = private unnamed_addr constant [23 x i8] c"LockViewRecurse_walker\00", align 1

; Function Attrs: nounwind uwtable
define internal i32 @LockTableAclCheck(i32 noundef %0, i32 noundef %1, i32 noundef %2) #0 {
  %4 = alloca i32, align 4
  %5 = alloca i32, align 4
  %6 = alloca i32, align 4
  %7 = alloca i32, align 4
  %8 = alloca i64, align 8
  store i32 %0, ptr %4, align 4
  store i32 %1, ptr %5, align 4
  store i32 %2, ptr %6, align 4
  call void @llvm.lifetime.start.p0(i64 4, ptr %7) #6
  call void @llvm.lifetime.start.p0(i64 8, ptr %8) #6
  store i64 16412, ptr %8, align 8
  %9 = load i32, ptr %5, align 4
  %10 = icmp sle i32 %9, 1
  br i1 %10, label %11, label %14

11:                                               ; preds = %3
  %12 = load i64, ptr %8, align 8
  %13 = or i64 %12, 2
  store i64 %13, ptr %8, align 8
  br label %14

14:                                               ; preds = %11, %3
  %15 = load i32, ptr %5, align 4
  %16 = icmp sle i32 %15, 3
  br i1 %16, label %17, label %20

17:                                               ; preds = %14
  %18 = load i64, ptr %8, align 8
  %19 = or i64 %18, 1
  store i64 %19, ptr %8, align 8
  br label %20

20:                                               ; preds = %17, %14
  %21 = load i32, ptr %4, align 4
  %22 = load i32, ptr %6, align 4
  %23 = load i64, ptr %8, align 8
  %24 = call i32 @pg_class_aclcheck(i32 noundef %21, i32 noundef %22, i64 noundef %23)
  store i32 %24, ptr %7, align 4
  %25 = load i32, ptr %7, align 4
  call void @llvm.lifetime.end.p0(i64 8, ptr %8) #6
  call void @llvm.lifetime.end.p0(i64 4, ptr %7) #6
  ret i32 %25
}

; Function Attrs: nounwind uwtable
define internal zeroext i1 @LockViewRecurse_walker(ptr noundef %0, ptr noundef %1) #0 {
  %3 = alloca i1, align 1
  %4 = alloca ptr, align 8
  %5 = alloca ptr, align 8
  %6 = alloca ptr, align 8
  %7 = alloca ptr, align 8
  %8 = alloca %struct.ForEachState, align 8
  %9 = alloca i32, align 4
  %10 = alloca ptr, align 8
  %11 = alloca i32, align 4
  %12 = alloca i32, align 4
  %13 = alloca i8, align 1
  %14 = alloca ptr, align 8
  store ptr %0, ptr %4, align 8
  store ptr %1, ptr %5, align 8
  %15 = load ptr, ptr %4, align 8
  %16 = icmp eq ptr %15, null
  br i1 %16, label %17, label %18

17:                                               ; preds = %2
  store i1 false, ptr %3, align 1
  br label %180

18:                                               ; preds = %2
  %19 = load ptr, ptr %4, align 8
  %20 = getelementptr inbounds nuw %struct.Node, ptr %19, i32 0, i32 0
  %21 = load i32, ptr %20, align 4
  %22 = icmp eq i32 %21, 67
  br i1 %22, label %23, label %176

23:                                               ; preds = %18
  call void @llvm.lifetime.start.p0(i64 8, ptr %6) #6
  %24 = load ptr, ptr %4, align 8
  store ptr %24, ptr %6, align 8
  call void @llvm.lifetime.start.p0(i64 8, ptr %7) #6
  call void @llvm.lifetime.start.p0(i64 16, ptr %8) #6
  %25 = getelementptr inbounds nuw %struct.ForEachState, ptr %8, i32 0, i32 0
  %26 = load ptr, ptr %6, align 8
  %27 = getelementptr inbounds nuw %struct.Query, ptr %26, i32 0, i32 19
  %28 = load ptr, ptr %27, align 8
  store ptr %28, ptr %25, align 8
  %29 = getelementptr inbounds nuw %struct.ForEachState, ptr %8, i32 0, i32 1
  store i32 0, ptr %29, align 8
  %30 = getelementptr i8, ptr %8, i64 12
  call void @llvm.memset.p0.i64(ptr align 4 %30, i8 0, i64 4, i1 false)
  br label %31

31:                                               ; preds = %168, %23
  %32 = getelementptr inbounds nuw %struct.ForEachState, ptr %8, i32 0, i32 0
  %33 = load ptr, ptr %32, align 8
  %34 = icmp ne ptr %33, null
  br i1 %34, label %35, label %52

35:                                               ; preds = %31
  %36 = getelementptr inbounds nuw %struct.ForEachState, ptr %8, i32 0, i32 1
  %37 = load i32, ptr %36, align 8
  %38 = getelementptr inbounds nuw %struct.ForEachState, ptr %8, i32 0, i32 0
  %39 = load ptr, ptr %38, align 8
  %40 = getelementptr inbounds nuw %struct.List, ptr %39, i32 0, i32 1
  %41 = load i32, ptr %40, align 4
  %42 = icmp slt i32 %37, %41
  br i1 %42, label %43, label %52

43:                                               ; preds = %35
  %44 = getelementptr inbounds nuw %struct.ForEachState, ptr %8, i32 0, i32 0
  %45 = load ptr, ptr %44, align 8
  %46 = getelementptr inbounds nuw %struct.List, ptr %45, i32 0, i32 3
  %47 = load ptr, ptr %46, align 8
  %48 = getelementptr inbounds nuw %struct.ForEachState, ptr %8, i32 0, i32 1
  %49 = load i32, ptr %48, align 8
  %50 = sext i32 %49 to i64
  %51 = getelementptr inbounds %union.ListCell, ptr %47, i64 %50
  store ptr %51, ptr %7, align 8
  br label %53

52:                                               ; preds = %35, %31
  store ptr null, ptr %7, align 8
  br label %53

53:                                               ; preds = %52, %43
  %54 = phi i32 [ 1, %43 ], [ 0, %52 ]
  %55 = icmp ne i32 %54, 0
  br i1 %55, label %57, label %56

56:                                               ; preds = %53
  store i32 2, ptr %9, align 4
  call void @llvm.lifetime.end.p0(i64 16, ptr %8) #6
  br label %172

57:                                               ; preds = %53
  call void @llvm.lifetime.start.p0(i64 8, ptr %10) #6
  %58 = load ptr, ptr %7, align 8
  %59 = load ptr, ptr %58, align 8
  store ptr %59, ptr %10, align 8
  call void @llvm.lifetime.start.p0(i64 4, ptr %11) #6
  call void @llvm.lifetime.start.p0(i64 4, ptr %12) #6
  %60 = load ptr, ptr %10, align 8
  %61 = getelementptr inbounds nuw %struct.RangeTblEntry, ptr %60, i32 0, i32 4
  %62 = load i32, ptr %61, align 4
  store i32 %62, ptr %12, align 4
  call void @llvm.lifetime.start.p0(i64 1, ptr %13) #6
  %63 = load ptr, ptr %10, align 8
  %64 = getelementptr inbounds nuw %struct.RangeTblEntry, ptr %63, i32 0, i32 6
  %65 = load i8, ptr %64, align 1
  store i8 %65, ptr %13, align 1
  call void @llvm.lifetime.start.p0(i64 8, ptr %14) #6
  %66 = load i32, ptr %12, align 4
  %67 = call ptr @get_rel_name(i32 noundef %66)
  store ptr %67, ptr %14, align 8
  %68 = load i8, ptr %13, align 1
  %69 = sext i8 %68 to i32
  %70 = icmp ne i32 %69, 114
  br i1 %70, label %71, label %80

71:                                               ; preds = %57
  %72 = load i8, ptr %13, align 1
  %73 = sext i8 %72 to i32
  %74 = icmp ne i32 %73, 112
  br i1 %74, label %75, label %80

75:                                               ; preds = %71
  %76 = load i8, ptr %13, align 1
  %77 = sext i8 %76 to i32
  %78 = icmp ne i32 %77, 118
  br i1 %78, label %79, label %80

79:                                               ; preds = %75
  store i32 4, ptr %9, align 4
  br label %165

80:                                               ; preds = %75, %71, %57
  %81 = load ptr, ptr %5, align 8
  %82 = getelementptr inbounds nuw %struct.LockViewRecurse_context, ptr %81, i32 0, i32 4
  %83 = load ptr, ptr %82, align 8
  %84 = load i32, ptr %12, align 4
  %85 = call zeroext i1 @list_member_oid(ptr noundef %83, i32 noundef %84)
  br i1 %85, label %86, label %87

86:                                               ; preds = %80
  store i32 4, ptr %9, align 4
  br label %165

87:                                               ; preds = %80
  %88 = load i32, ptr %12, align 4
  %89 = load ptr, ptr %5, align 8
  %90 = getelementptr inbounds nuw %struct.LockViewRecurse_context, ptr %89, i32 0, i32 0
  %91 = load i32, ptr %90, align 8
  %92 = load ptr, ptr %5, align 8
  %93 = getelementptr inbounds nuw %struct.LockViewRecurse_context, ptr %92, i32 0, i32 2
  %94 = load i32, ptr %93, align 8
  %95 = call i32 @LockTableAclCheck(i32 noundef %88, i32 noundef %91, i32 noundef %94)
  store i32 %95, ptr %11, align 4
  %96 = load i32, ptr %11, align 4
  %97 = icmp ne i32 %96, 0
  br i1 %97, label %98, label %103

98:                                               ; preds = %87
  %99 = load i32, ptr %11, align 4
  %100 = load i8, ptr %13, align 1
  %101 = call i32 @get_relkind_objtype(i8 noundef signext %100)
  %102 = load ptr, ptr %14, align 8
  call void @aclcheck_error(i32 noundef %99, i32 noundef %101, ptr noundef %102)
  br label %103

103:                                              ; preds = %98, %87
  %104 = load ptr, ptr %5, align 8
  %105 = getelementptr inbounds nuw %struct.LockViewRecurse_context, ptr %104, i32 0, i32 1
  %106 = load i8, ptr %105, align 4, !range !4, !noundef !5
  %107 = trunc i8 %106 to i1
  br i1 %107, label %113, label %108

108:                                              ; preds = %103
  %109 = load i32, ptr %12, align 4
  %110 = load ptr, ptr %5, align 8
  %111 = getelementptr inbounds nuw %struct.LockViewRecurse_context, ptr %110, i32 0, i32 0
  %112 = load i32, ptr %111, align 8
  call void @LockRelationOid(i32 noundef %109, i32 noundef %112)
  br label %133

113:                                              ; preds = %103
  %114 = load i32, ptr %12, align 4
  %115 = load ptr, ptr %5, align 8
  %116 = getelementptr inbounds nuw %struct.LockViewRecurse_context, ptr %115, i32 0, i32 0
  %117 = load i32, ptr %116, align 8
  %118 = call zeroext i1 @ConditionalLockRelationOid(i32 noundef %114, i32 noundef %117)
  br i1 %118, label %132, label %119

119:                                              ; preds = %113
  br label %120

120:                                              ; preds = %119
  br i1 true, label %121, label %123

121:                                              ; preds = %120
  %122 = call zeroext i1 @errstart_cold(i32 noundef 21, ptr noundef null) #7
  br i1 %122, label %125, label %129

123:                                              ; preds = %120
  %124 = call zeroext i1 @errstart(i32 noundef 21, ptr noundef null)
  br i1 %124, label %125, label %129

125:                                              ; preds = %123, %121
  %126 = call i32 @errcode(i32 noundef 50463045)
  %127 = load ptr, ptr %14, align 8
  %128 = call i32 (ptr, ...) @errmsg(ptr noundef @.str.2, ptr noundef %127)
  call void @errfinish(ptr noundef @.str.1, i32 noundef 224, ptr noundef @__func__.LockViewRecurse_walker)
  br label %129

129:                                              ; preds = %125, %123, %121
  unreachable

130:                                              ; No predecessors!
  br label %131

131:                                              ; preds = %130
  br label %132

132:                                              ; preds = %131, %113
  br label %133

133:                                              ; preds = %132, %108
  %134 = load i8, ptr %13, align 1
  %135 = sext i8 %134 to i32
  %136 = icmp eq i32 %135, 118
  br i1 %136, label %137, label %149

137:                                              ; preds = %133
  %138 = load i32, ptr %12, align 4
  %139 = load ptr, ptr %5, align 8
  %140 = getelementptr inbounds nuw %struct.LockViewRecurse_context, ptr %139, i32 0, i32 0
  %141 = load i32, ptr %140, align 8
  %142 = load ptr, ptr %5, align 8
  %143 = getelementptr inbounds nuw %struct.LockViewRecurse_context, ptr %142, i32 0, i32 1
  %144 = load i8, ptr %143, align 4, !range !4, !noundef !5
  %145 = trunc i8 %144 to i1
  %146 = load ptr, ptr %5, align 8
  %147 = getelementptr inbounds nuw %struct.LockViewRecurse_context, ptr %146, i32 0, i32 4
  %148 = load ptr, ptr %147, align 8
  call void @LockViewRecurse(i32 noundef %138, i32 noundef %141, i1 noundef zeroext %145, ptr noundef %148)
  br label %164

149:                                              ; preds = %133
  %150 = load ptr, ptr %10, align 8
  %151 = getelementptr inbounds nuw %struct.RangeTblEntry, ptr %150, i32 0, i32 5
  %152 = load i8, ptr %151, align 8, !range !4, !noundef !5
  %153 = trunc i8 %152 to i1
  br i1 %153, label %154, label %163

154:                                              ; preds = %149
  %155 = load i32, ptr %12, align 4
  %156 = load ptr, ptr %5, align 8
  %157 = getelementptr inbounds nuw %struct.LockViewRecurse_context, ptr %156, i32 0, i32 0
  %158 = load i32, ptr %157, align 8
  %159 = load ptr, ptr %5, align 8
  %160 = getelementptr inbounds nuw %struct.LockViewRecurse_context, ptr %159, i32 0, i32 1
  %161 = load i8, ptr %160, align 4, !range !4, !noundef !5
  %162 = trunc i8 %161 to i1
  call void @LockTableRecurse(i32 noundef %155, i32 noundef %158, i1 noundef zeroext %162)
  br label %163

163:                                              ; preds = %154, %149
  br label %164

164:                                              ; preds = %163, %137
  store i32 0, ptr %9, align 4
  br label %165

165:                                              ; preds = %164, %86, %79
  call void @llvm.lifetime.end.p0(i64 8, ptr %14) #6
  call void @llvm.lifetime.end.p0(i64 1, ptr %13) #6
  call void @llvm.lifetime.end.p0(i64 4, ptr %12) #6
  call void @llvm.lifetime.end.p0(i64 4, ptr %11) #6
  call void @llvm.lifetime.end.p0(i64 8, ptr %10) #6
  %166 = load i32, ptr %9, align 4
  switch i32 %166, label %182 [
    i32 0, label %167
    i32 4, label %168
  ]

167:                                              ; preds = %165
  br label %168

168:                                              ; preds = %167, %165
  %169 = getelementptr inbounds nuw %struct.ForEachState, ptr %8, i32 0, i32 1
  %170 = load i32, ptr %169, align 8
  %171 = add i32 %170, 1
  store i32 %171, ptr %169, align 8
  br label %31, !llvm.loop !9

172:                                              ; preds = %56
  %173 = load ptr, ptr %6, align 8
  %174 = load ptr, ptr %5, align 8
  %175 = call zeroext i1 @query_tree_walker_impl(ptr noundef %173, ptr noundef @LockViewRecurse_walker, ptr noundef %174, i32 noundef 4)
  store i1 %175, ptr %3, align 1
  store i32 1, ptr %9, align 4
  call void @llvm.lifetime.end.p0(i64 8, ptr %7) #6
  call void @llvm.lifetime.end.p0(i64 8, ptr %6) #6
  br label %180

176:                                              ; preds = %18
  %177 = load ptr, ptr %4, align 8
  %178 = load ptr, ptr %5, align 8
  %179 = call zeroext i1 @expression_tree_walker_impl(ptr noundef %177, ptr noundef @LockViewRecurse_walker, ptr noundef %178)
  store i1 %179, ptr %3, align 1
  br label %180

180:                                              ; preds = %176, %172, %17
  %181 = load i1, ptr %3, align 1
  ret i1 %181

182:                                              ; preds = %165
  unreachable
}