; Function Attrs: nounwind uwtable
define internal zeroext i1 @LockViewRecurse_walker(ptr noundef %0, ptr noundef %1) #0 {
  %3 = icmp eq ptr %0, null
  br i1 %3, label %70, label %4

4:                                                ; preds = %2
  %5 = load i32, ptr %0, align 4
  %6 = icmp eq i32 %5, 67
  br i1 %6, label %7, label %68

7:                                                ; preds = %4
  %8 = getelementptr inbounds nuw i8, ptr %0, i64 64
  %9 = load ptr, ptr %8, align 8
  %.not = icmp eq ptr %9, null
  br i1 %.not, label %._crit_edge, label %.lr.ph

.lr.ph:                                           ; preds = %7
  %10 = getelementptr inbounds nuw i8, ptr %9, i64 4
  %11 = getelementptr inbounds nuw i8, ptr %9, i64 16
  %12 = getelementptr inbounds nuw i8, ptr %1, i64 16
  %13 = getelementptr inbounds nuw i8, ptr %1, i64 8
  %14 = getelementptr inbounds nuw i8, ptr %1, i64 4
  %15 = load i32, ptr %10, align 4
  %16 = icmp sgt i32 %15, 0
  br i1 %16, label %.lr.ph60, label %._crit_edge

._crit_edge:                                      ; preds = %64, %.lr.ph, %7
  %17 = tail call zeroext i1 @query_tree_walker_impl(ptr noundef nonnull %0, ptr noundef nonnull @LockViewRecurse_walker, ptr noundef %1, i32 noundef 4) #5
  br label %70

.lr.ph60:                                         ; preds = %.lr.ph, %64
  %indvars.iv59 = phi i64 [ %indvars.iv.next, %64 ], [ 0, %.lr.ph ]
  %18 = load ptr, ptr %11, align 8
  %19 = getelementptr inbounds nuw %union.ListCell, ptr %18, i64 %indvars.iv59
  %20 = load ptr, ptr %19, align 8
  %21 = getelementptr inbounds nuw i8, ptr %20, i64 28
  %22 = load i32, ptr %21, align 4
  %23 = getelementptr inbounds nuw i8, ptr %20, i64 33
  %24 = load i8, ptr %23, align 1
  %25 = tail call ptr @get_rel_name(i32 noundef %22) #5
  switch i8 %24, label %64 [
    i8 118, label %26
    i8 114, label %26
    i8 112, label %26
  ]

26:                                               ; preds = %.lr.ph60, %.lr.ph60, %.lr.ph60
  %27 = load ptr, ptr %12, align 8
  %28 = tail call zeroext i1 @list_member_oid(ptr noundef %27, i32 noundef %22) #5
  br i1 %28, label %64, label %29

29:                                               ; preds = %26
  %30 = load i32, ptr %1, align 8
  %31 = load i32, ptr %13, align 8
  %32 = icmp slt i32 %30, 2
  %spec.select.i = select i1 %32, i64 16414, i64 16412
  %33 = icmp slt i32 %30, 4
  %34 = zext i1 %33 to i64
  %.1.i = or disjoint i64 %spec.select.i, %34
  %35 = tail call i32 @pg_class_aclcheck(i32 noundef %22, i32 noundef %31, i64 noundef %.1.i) #5
  %.not53 = icmp eq i32 %35, 0
  br i1 %.not53, label %38, label %36

36:                                               ; preds = %29
  %37 = tail call i32 @get_relkind_objtype(i8 noundef signext %24) #5
  tail call void @aclcheck_error(i32 noundef %35, i32 noundef %37, ptr noundef %25) #5
  br label %38

38:                                               ; preds = %36, %29
  %39 = load i8, ptr %14, align 4, !range !4, !noundef !5
  %40 = trunc nuw i8 %39 to i1
  %41 = load i32, ptr %1, align 8
  br i1 %40, label %43, label %42

42:                                               ; preds = %38
  tail call void @LockRelationOid(i32 noundef %22, i32 noundef %41) #5
  br label %49

43:                                               ; preds = %38
  %44 = tail call zeroext i1 @ConditionalLockRelationOid(i32 noundef %22, i32 noundef %41) #5
  br i1 %44, label %49, label %45

45:                                               ; preds = %43
  %46 = tail call zeroext i1 @errstart_cold(i32 noundef 21, ptr noundef null) #6
  tail call void @llvm.assume(i1 %46)
  %47 = tail call i32 @errcode(i32 noundef 50463045) #5
  %48 = tail call i32 (ptr, ...) @errmsg(ptr noundef nonnull @.str.2, ptr noundef %25) #5
  tail call void @errfinish(ptr noundef nonnull @.str.1, i32 noundef 224, ptr noundef nonnull @__func__.LockViewRecurse_walker) #5
  unreachable

49:                                               ; preds = %43, %42
  %50 = icmp eq i8 %24, 118
  br i1 %50, label %51, label %56

51:                                               ; preds = %49
  %52 = load i32, ptr %1, align 8
  %53 = load i8, ptr %14, align 4, !range !4, !noundef !5
  %54 = trunc nuw i8 %53 to i1
  %55 = load ptr, ptr %12, align 8
  tail call fastcc void @LockViewRecurse(i32 noundef %22, i32 noundef %52, i1 noundef zeroext %54, ptr noundef %55)
  br label %64

56:                                               ; preds = %49
  %57 = getelementptr inbounds nuw i8, ptr %20, i64 32
  %58 = load i8, ptr %57, align 8, !range !4, !noundef !5
  %59 = trunc nuw i8 %58 to i1
  br i1 %59, label %60, label %64

60:                                               ; preds = %56
  %61 = load i32, ptr %1, align 8
  %62 = load i8, ptr %14, align 4, !range !4, !noundef !5
  %63 = trunc nuw i8 %62 to i1
  tail call fastcc void @LockTableRecurse(i32 noundef %22, i32 noundef %61, i1 noundef zeroext %63)
  br label %64

64:                                               ; preds = %51, %60, %56, %26, %.lr.ph60
  %indvars.iv.next = add nuw nsw i64 %indvars.iv59, 1
  %65 = load i32, ptr %10, align 4
  %66 = sext i32 %65 to i64
  %67 = icmp slt i64 %indvars.iv.next, %66
  br i1 %67, label %.lr.ph60, label %._crit_edge

68:                                               ; preds = %4
  %69 = tail call zeroext i1 @expression_tree_walker_impl(ptr noundef nonnull %0, ptr noundef nonnull @LockViewRecurse_walker, ptr noundef %1) #5
  br label %70

70:                                               ; preds = %2, %68, %._crit_edge
  %.0 = phi i1 [ %17, %._crit_edge ], [ %69, %68 ], [ false, %2 ]
  ret i1 %.0
}